target datalayout = "e-m:e-p270:32:32-p271:32:32-p272:64:64-i64:64-i128:128-f80:128-n8:16:32:64-S128"
target triple = "x86_64-pc-linux-gnu"

%struct.jpeg_compress_struct = type { ptr, ptr, ptr, ptr, i32, i32, ptr, i32, i32, i32, i32, double, i32, i32, i32, ptr, [4 x ptr], [4 x ptr], [4 x ptr], [16 x i8], [16 x i8], [16 x i8], i32, ptr, i32, i32, i32, i32, i32, i32, i32, i32, i32, i8, i8, i8, i16, i16, i32, i32, i32, i32, i32, i32, i32, [4 x ptr], i32, i32, i32, [10 x i32], i32, i32, i32, i32, ptr, ptr, ptr, ptr, ptr, ptr, ptr, ptr, ptr, ptr, i32 }
%struct.phuff_entropy_encoder = type { %struct.jpeg_entropy_encoder, ptr, ptr, i32, ptr, i64, i64, i32, ptr, [4 x i32], i32, i32, i32, ptr, i32, i32, [4 x ptr], [4 x ptr] }
%struct.jpeg_entropy_encoder = type { ptr, ptr, ptr, ptr }
%struct.jpeg_error_mgr = type { ptr, ptr, ptr, ptr, ptr, i32, %union.anon, i32, i64, ptr, i32, ptr, i32, i32 }
%union.anon = type { [8 x i32], [48 x i8] }
%struct.jpeg_destination_mgr = type { ptr, i64, ptr, ptr, ptr }

; Function Attrs: nounwind uwtable
define internal void @dump_buffer(ptr noundef %0) #0 {
  %2 = alloca ptr, align 8
  %3 = alloca ptr, align 8
  store ptr %0, ptr %2, align 8, !tbaa !29
  call void @llvm.lifetime.start.p0(i64 8, ptr %3) #6
  %4 = load ptr, ptr %2, align 8, !tbaa !29
  %5 = getelementptr inbounds nuw %struct.phuff_entropy_encoder, ptr %4, i32 0, i32 8
  %6 = load ptr, ptr %5, align 8, !tbaa !41
  %7 = getelementptr inbounds nuw %struct.jpeg_compress_struct, ptr %6, i32 0, i32 6
  %8 = load ptr, ptr %7, align 8, !tbaa !72
  store ptr %8, ptr %3, align 8, !tbaa !98
  %9 = load ptr, ptr %3, align 8, !tbaa !98
  %10 = getelementptr inbounds nuw %struct.jpeg_destination_mgr, ptr %9, i32 0, i32 3
  %11 = load ptr, ptr %10, align 8, !tbaa !99
  %12 = load ptr, ptr %2, align 8, !tbaa !29
  %13 = getelementptr inbounds nuw %struct.phuff_entropy_encoder, ptr %12, i32 0, i32 8
  %14 = load ptr, ptr %13, align 8, !tbaa !41
  %15 = call i32 %11(ptr noundef %14)
  %16 = icmp ne i32 %15, 0
  br i1 %16, label %34, label %17

17:                                               ; preds = %1
  %18 = load ptr, ptr %2, align 8, !tbaa !29
  %19 = getelementptr inbounds nuw %struct.phuff_entropy_encoder, ptr %18, i32 0, i32 8
  %20 = load ptr, ptr %19, align 8, !tbaa !41
  %21 = getelementptr inbounds nuw %struct.jpeg_compress_struct, ptr %20, i32 0, i32 0
  %22 = load ptr, ptr %21, align 8, !tbaa !54
  %23 = getelementptr inbounds nuw %struct.jpeg_error_mgr, ptr %22, i32 0, i32 5
  store i32 24, ptr %23, align 8, !tbaa !55
  %24 = load ptr, ptr %2, align 8, !tbaa !29
  %25 = getelementptr inbounds nuw %struct.phuff_entropy_encoder, ptr %24, i32 0, i32 8
  %26 = load ptr, ptr %25, align 8, !tbaa !41
  %27 = getelementptr inbounds nuw %struct.jpeg_compress_struct, ptr %26, i32 0, i32 0
  %28 = load ptr, ptr %27, align 8, !tbaa !54
  %29 = getelementptr inbounds nuw %struct.jpeg_error_mgr, ptr %28, i32 0, i32 0
  %30 = load ptr, ptr %29, align 8, !tbaa !59
  %31 = load ptr, ptr %2, align 8, !tbaa !29
  %32 = getelementptr inbounds nuw %struct.phuff_entropy_encoder, ptr %31, i32 0, i32 8
  %33 = load ptr, ptr %32, align 8, !tbaa !41
  call void %30(ptr noundef %33)
  br label %34

34:                                               ; preds = %17, %1
  %35 = load ptr, ptr %3, align 8, !tbaa !98
  %36 = getelementptr inbounds nuw %struct.jpeg_destination_mgr, ptr %35, i32 0, i32 0
  %37 = load ptr, ptr %36, align 8, !tbaa !73
  %38 = load ptr, ptr %2, align 8, !tbaa !29
  %39 = getelementptr inbounds nuw %struct.phuff_entropy_encoder, ptr %38, i32 0, i32 4
  store ptr %37, ptr %39, align 8, !tbaa !75
  %40 = load ptr, ptr %3, align 8, !tbaa !98
  %41 = getelementptr inbounds nuw %struct.jpeg_destination_mgr, ptr %40, i32 0, i32 1
  %42 = load i64, ptr %41, align 8, !tbaa !76
  %43 = load ptr, ptr %2, align 8, !tbaa !29
  %44 = getelementptr inbounds nuw %struct.phuff_entropy_encoder, ptr %43, i32 0, i32 5
  store i64 %42, ptr %44, align 8, !tbaa !77
  call void @llvm.lifetime.end.p0(i64 8, ptr %3) #6
  ret void
}

; Function Attrs: nounwind uwtable
define internal void @emit_bits(ptr noundef %0, i32 noundef %1, i32 noundef %2) #0 {
  %4 = alloca ptr, align 8
  %5 = alloca i32, align 4
  %6 = alloca i32, align 4
  %7 = alloca i64, align 8
  %8 = alloca i32, align 4
  %9 = alloca i32, align 4
  %10 = alloca i32, align 4
  store ptr %0, ptr %4, align 8, !tbaa !29
  store i32 %1, ptr %5, align 4, !tbaa !35
  store i32 %2, ptr %6, align 4, !tbaa !35
  call void @llvm.lifetime.start.p0(i64 8, ptr %7) #6
  %11 = load i32, ptr %5, align 4, !tbaa !35
  %12 = zext i32 %11 to i64
  store i64 %12, ptr %7, align 8, !tbaa !84
  call void @llvm.lifetime.start.p0(i64 4, ptr %8) #6
  %13 = load ptr, ptr %4, align 8, !tbaa !29
  %14 = getelementptr inbounds nuw %struct.phuff_entropy_encoder, ptr %13, i32 0, i32 7
  %15 = load i32, ptr %14, align 8, !tbaa !64
  store i32 %15, ptr %8, align 4, !tbaa !35
  %16 = load i32, ptr %6, align 4, !tbaa !35
  %17 = icmp eq i32 %16, 0
  br i1 %17, label %18, label %35

18:                                               ; preds = %3
  %19 = load ptr, ptr %4, align 8, !tbaa !29
  %20 = getelementptr inbounds nuw %struct.phuff_entropy_encoder, ptr %19, i32 0, i32 8
  %21 = load ptr, ptr %20, align 8, !tbaa !41
  %22 = getelementptr inbounds nuw %struct.jpeg_compress_struct, ptr %21, i32 0, i32 0
  %23 = load ptr, ptr %22, align 8, !tbaa !54
  %24 = getelementptr inbounds nuw %struct.jpeg_error_mgr, ptr %23, i32 0, i32 5
  store i32 40, ptr %24, align 8, !tbaa !55
  %25 = load ptr, ptr %4, align 8, !tbaa !29
  %26 = getelementptr inbounds nuw %struct.phuff_entropy_encoder, ptr %25, i32 0, i32 8
  %27 = load ptr, ptr %26, align 8, !tbaa !41
  %28 = getelementptr inbounds nuw %struct.jpeg_compress_struct, ptr %27, i32 0, i32 0
  %29 = load ptr, ptr %28, align 8, !tbaa !54
  %30 = getelementptr inbounds nuw %struct.jpeg_error_mgr, ptr %29, i32 0, i32 0
  %31 = load ptr, ptr %30, align 8, !tbaa !59
  %32 = load ptr, ptr %4, align 8, !tbaa !29
  %33 = getelementptr inbounds nuw %struct.phuff_entropy_encoder, ptr %32, i32 0, i32 8
  %34 = load ptr, ptr %33, align 8, !tbaa !41
  call void %31(ptr noundef %34)
  br label %35

35:                                               ; preds = %18, %3
  %36 = load ptr, ptr %4, align 8, !tbaa !29
  %37 = getelementptr inbounds nuw %struct.phuff_entropy_encoder, ptr %36, i32 0, i32 3
  %38 = load i32, ptr %37, align 8, !tbaa !42
  %39 = icmp ne i32 %38, 0
  br i1 %39, label %40, label %41

40:                                               ; preds = %35
  store i32 1, ptr %9, align 4
  br label %110

41:                                               ; preds = %35
  %42 = load i32, ptr %6, align 4, !tbaa !35
  %43 = zext i32 %42 to i64
  %44 = shl i64 1, %43
  %45 = sub i64 %44, 1
  %46 = load i64, ptr %7, align 8, !tbaa !84
  %47 = and i64 %46, %45
  store i64 %47, ptr %7, align 8, !tbaa !84
  %48 = load i32, ptr %6, align 4, !tbaa !35
  %49 = load i32, ptr %8, align 4, !tbaa !35
  %50 = add nsw i32 %49, %48
  store i32 %50, ptr %8, align 4, !tbaa !35
  %51 = load i32, ptr %8, align 4, !tbaa !35
  %52 = sub nsw i32 24, %51
  %53 = load i64, ptr %7, align 8, !tbaa !84
  %54 = zext i32 %52 to i64
  %55 = shl i64 %53, %54
  store i64 %55, ptr %7, align 8, !tbaa !84
  %56 = load ptr, ptr %4, align 8, !tbaa !29
  %57 = getelementptr inbounds nuw %struct.phuff_entropy_encoder, ptr %56, i32 0, i32 6
  %58 = load i64, ptr %57, align 8, !tbaa !63
  %59 = load i64, ptr %7, align 8, !tbaa !84
  %60 = or i64 %59, %58
  store i64 %60, ptr %7, align 8, !tbaa !84
  br label %61

61:                                               ; preds = %98, %41
  %62 = load i32, ptr %8, align 4, !tbaa !35
  %63 = icmp sge i32 %62, 8
  br i1 %63, label %64, label %103

64:                                               ; preds = %61
  call void @llvm.lifetime.start.p0(i64 4, ptr %10) #6
  %65 = load i64, ptr %7, align 8, !tbaa !84
  %66 = lshr i64 %65, 16
  %67 = and i64 %66, 255
  %68 = trunc i64 %67 to i32
  store i32 %68, ptr %10, align 4, !tbaa !35
  %69 = load i32, ptr %10, align 4, !tbaa !35
  %70 = trunc i32 %69 to i8
  %71 = load ptr, ptr %4, align 8, !tbaa !29
  %72 = getelementptr inbounds nuw %struct.phuff_entropy_encoder, ptr %71, i32 0, i32 4
  %73 = load ptr, ptr %72, align 8, !tbaa !75
  %74 = getelementptr inbounds nuw i8, ptr %73, i32 1
  store ptr %74, ptr %72, align 8, !tbaa !75
  store i8 %70, ptr %73, align 1, !tbaa !58
  %75 = load ptr, ptr %4, align 8, !tbaa !29
  %76 = getelementptr inbounds nuw %struct.phuff_entropy_encoder, ptr %75, i32 0, i32 5
  %77 = load i64, ptr %76, align 8, !tbaa !77
  %78 = add i64 %77, -1
  store i64 %78, ptr %76, align 8, !tbaa !77
  %79 = icmp eq i64 %78, 0
  br i1 %79, label %80, label %82

80:                                               ; preds = %64
  %81 = load ptr, ptr %4, align 8, !tbaa !29
  call void @dump_buffer(ptr noundef %81)
  br label %82

82:                                               ; preds = %80, %64
  %83 = load i32, ptr %10, align 4, !tbaa !35
  %84 = icmp eq i32 %83, 255
  br i1 %84, label %85, label %98

85:                                               ; preds = %82
  %86 = load ptr, ptr %4, align 8, !tbaa !29
  %87 = getelementptr inbounds nuw %struct.phuff_entropy_encoder, ptr %86, i32 0, i32 4
  %88 = load ptr, ptr %87, align 8, !tbaa !75
  %89 = getelementptr inbounds nuw i8, ptr %88, i32 1
  store ptr %89, ptr %87, align 8, !tbaa !75
  store i8 0, ptr %88, align 1, !tbaa !58
  %90 = load ptr, ptr %4, align 8, !tbaa !29
  %91 = getelementptr inbounds nuw %struct.phuff_entropy_encoder, ptr %90, i32 0, i32 5
  %92 = load i64, ptr %91, align 8, !tbaa !77
  %93 = add i64 %92, -1
  store i64 %93, ptr %91, align 8, !tbaa !77
  %94 = icmp eq i64 %93, 0
  br i1 %94, label %95, label %97

95:                                               ; preds = %85
  %96 = load ptr, ptr %4, align 8, !tbaa !29
  call void @dump_buffer(ptr noundef %96)
  br label %97

97:                                               ; preds = %95, %85
  br label %98

98:                                               ; preds = %97, %82
  %99 = load i64, ptr %7, align 8, !tbaa !84
  %100 = shl i64 %99, 8
  store i64 %100, ptr %7, align 8, !tbaa !84
  %101 = load i32, ptr %8, align 4, !tbaa !35
  %102 = sub nsw i32 %101, 8
  store i32 %102, ptr %8, align 4, !tbaa !35
  call void @llvm.lifetime.end.p0(i64 4, ptr %10) #6
  br label %61, !llvm.loop !97

103:                                              ; preds = %61
  %104 = load i64, ptr %7, align 8, !tbaa !84
  %105 = load ptr, ptr %4, align 8, !tbaa !29
  %106 = getelementptr inbounds nuw %struct.phuff_entropy_encoder, ptr %105, i32 0, i32 6
  store i64 %104, ptr %106, align 8, !tbaa !63
  %107 = load i32, ptr %8, align 4, !tbaa !35
  %108 = load ptr, ptr %4, align 8, !tbaa !29
  %109 = getelementptr inbounds nuw %struct.phuff_entropy_encoder, ptr %108, i32 0, i32 7
  store i32 %107, ptr %109, align 8, !tbaa !64
  store i32 0, ptr %9, align 4
  br label %110

110:                                              ; preds = %103, %40
  call void @llvm.lifetime.end.p0(i64 4, ptr %8) #6
  call void @llvm.lifetime.end.p0(i64 8, ptr %7) #6
  %111 = load i32, ptr %9, align 4
  switch i32 %111, label %113 [
    i32 0, label %112
    i32 1, label %112
  ]

112:                                              ; preds = %110, %110
  ret void

113:                                              ; preds = %110
  unreachable
}