; Function Attrs: nounwind uwtable
define internal fastcc void @emit_bits(ptr noundef captures(none) %0, i32 noundef %1, i32 noundef range(i32 -128, 256) %2) unnamed_addr #0 {
  %4 = zext i32 %1 to i64
  %5 = getelementptr inbounds nuw i8, ptr %0, i64 80
  %6 = load i32, ptr %5, align 8, !tbaa !62
  %7 = icmp eq i32 %2, 0
  br i1 %7, label %8, label %14

8:                                                ; preds = %3
  %9 = getelementptr inbounds nuw i8, ptr %0, i64 88
  %10 = load ptr, ptr %9, align 8, !tbaa !34
  %11 = load ptr, ptr %10, align 8, !tbaa !51
  %12 = getelementptr inbounds nuw i8, ptr %11, i64 40
  store i32 40, ptr %12, align 8, !tbaa !52
  %13 = load ptr, ptr %11, align 8, !tbaa !56
  tail call void %13(ptr noundef nonnull %10) #7
  br label %14

14:                                               ; preds = %8, %3
  %15 = getelementptr inbounds nuw i8, ptr %0, i64 48
  %16 = load i32, ptr %15, align 8, !tbaa !35
  %.not = icmp eq i32 %16, 0
  br i1 %.not, label %17, label %83

17:                                               ; preds = %14
  %18 = zext nneg i32 %2 to i64
  %notmask = shl nsw i64 -1, %18
  %19 = xor i64 %notmask, -1
  %20 = and i64 %19, %4
  %21 = add nsw i32 %6, %2
  %22 = sub nsw i32 24, %21
  %23 = zext nneg i32 %22 to i64
  %24 = shl i64 %20, %23
  %25 = getelementptr inbounds nuw i8, ptr %0, i64 72
  %26 = load i64, ptr %25, align 8, !tbaa !61
  %27 = or i64 %26, %24
  %28 = icmp sgt i32 %21, 7
  br i1 %28, label %.lr.ph, label %._crit_edge

.lr.ph:                                           ; preds = %17
  %29 = getelementptr inbounds nuw i8, ptr %0, i64 56
  %30 = getelementptr inbounds nuw i8, ptr %0, i64 64
  %31 = getelementptr inbounds nuw i8, ptr %0, i64 88
  br label %32

32:                                               ; preds = %.lr.ph, %79
  %.034 = phi i64 [ %27, %.lr.ph ], [ %80, %79 ]
  %.03033 = phi i32 [ %21, %.lr.ph ], [ %81, %79 ]
  %33 = lshr i64 %.034, 16
  %34 = trunc i64 %33 to i8
  %35 = load ptr, ptr %29, align 8, !tbaa !71
  %36 = getelementptr inbounds nuw i8, ptr %35, i64 1
  store ptr %36, ptr %29, align 8, !tbaa !71
  store i8 %34, ptr %35, align 1, !tbaa !55
  %37 = load i64, ptr %30, align 8, !tbaa !73
  %38 = add i64 %37, -1
  store i64 %38, ptr %30, align 8, !tbaa !73
  %39 = icmp eq i64 %38, 0
  br i1 %39, label %40, label %55

40:                                               ; preds = %32
  %41 = load ptr, ptr %31, align 8, !tbaa !34
  %42 = getelementptr inbounds nuw i8, ptr %41, i64 40
  %43 = load ptr, ptr %42, align 8, !tbaa !68
  %44 = getelementptr inbounds nuw i8, ptr %43, i64 24
  %45 = load ptr, ptr %44, align 8, !tbaa !81
  %46 = tail call i32 %45(ptr noundef %41) #7
  %.not.i = icmp eq i32 %46, 0
  br i1 %.not.i, label %47, label %dump_buffer.exit

47:                                               ; preds = %40
  %48 = load ptr, ptr %31, align 8, !tbaa !34
  %49 = load ptr, ptr %48, align 8, !tbaa !51
  %50 = getelementptr inbounds nuw i8, ptr %49, i64 40
  store i32 24, ptr %50, align 8, !tbaa !52
  %51 = load ptr, ptr %49, align 8, !tbaa !56
  tail call void %51(ptr noundef nonnull %48) #7
  br label %dump_buffer.exit

dump_buffer.exit:                                 ; preds = %40, %47
  %52 = load ptr, ptr %43, align 8, !tbaa !69
  store ptr %52, ptr %29, align 8, !tbaa !71
  %53 = getelementptr inbounds nuw i8, ptr %43, i64 8
  %54 = load i64, ptr %53, align 8, !tbaa !72
  store i64 %54, ptr %30, align 8, !tbaa !73
  br label %55

55:                                               ; preds = %dump_buffer.exit, %32
  %56 = and i64 %.034, 16711680
  %57 = icmp eq i64 %56, 16711680
  br i1 %57, label %58, label %79

58:                                               ; preds = %55
  %59 = load ptr, ptr %29, align 8, !tbaa !71
  %60 = getelementptr inbounds nuw i8, ptr %59, i64 1
  store ptr %60, ptr %29, align 8, !tbaa !71
  store i8 0, ptr %59, align 1, !tbaa !55
  %61 = load i64, ptr %30, align 8, !tbaa !73
  %62 = add i64 %61, -1
  store i64 %62, ptr %30, align 8, !tbaa !73
  %63 = icmp eq i64 %62, 0
  br i1 %63, label %64, label %79

64:                                               ; preds = %58
  %65 = load ptr, ptr %31, align 8, !tbaa !34
  %66 = getelementptr inbounds nuw i8, ptr %65, i64 40
  %67 = load ptr, ptr %66, align 8, !tbaa !68
  %68 = getelementptr inbounds nuw i8, ptr %67, i64 24
  %69 = load ptr, ptr %68, align 8, !tbaa !81
  %70 = tail call i32 %69(ptr noundef %65) #7
  %.not.i31 = icmp eq i32 %70, 0
  br i1 %.not.i31, label %71, label %dump_buffer.exit32

71:                                               ; preds = %64
  %72 = load ptr, ptr %31, align 8, !tbaa !34
  %73 = load ptr, ptr %72, align 8, !tbaa !51
  %74 = getelementptr inbounds nuw i8, ptr %73, i64 40
  store i32 24, ptr %74, align 8, !tbaa !52
  %75 = load ptr, ptr %73, align 8, !tbaa !56
  tail call void %75(ptr noundef nonnull %72) #7
  br label %dump_buffer.exit32

dump_buffer.exit32:                               ; preds = %64, %71
  %76 = load ptr, ptr %67, align 8, !tbaa !69
  store ptr %76, ptr %29, align 8, !tbaa !71
  %77 = getelementptr inbounds nuw i8, ptr %67, i64 8
  %78 = load i64, ptr %77, align 8, !tbaa !72
  store i64 %78, ptr %30, align 8, !tbaa !73
  br label %79

79:                                               ; preds = %58, %dump_buffer.exit32, %55
  %80 = shl i64 %.034, 8
  %81 = add nsw i32 %.03033, -8
  %82 = icmp sgt i32 %.03033, 15
  br i1 %82, label %32, label %._crit_edge, !llvm.loop !82

._crit_edge:                                      ; preds = %79, %17
  %.030.lcssa = phi i32 [ %21, %17 ], [ %81, %79 ]
  %.0.lcssa = phi i64 [ %27, %17 ], [ %80, %79 ]
  store i64 %.0.lcssa, ptr %25, align 8, !tbaa !61
  store i32 %.030.lcssa, ptr %5, align 8, !tbaa !62
  br label %83

83:                                               ; preds = %14, %._crit_edge
  ret void
}